target datalayout = "e-m:e-p270:32:32-p271:32:32-p272:64:64-i64:64-i128:128-f80:128-n8:16:32:64-S128"
target triple = "x86_64-pc-linux-gnu"

%struct.rb_method_definition_struct = type { i64, %union.anon, i64, i64 }
%union.anon = type { %struct.rb_method_cfunc_struct }
%struct.rb_method_cfunc_struct = type { ptr, ptr, i32 }
%struct.rb_method_entry_struct = type { i64, i64, ptr, i64, i64 }
%struct.rb_method_refined_struct = type { ptr }

@.str.4 = private unnamed_addr constant [15 x i8] c"../vm_method.c\00", align 1
@rb_method_definition_create.method_serial = internal global i64 1, align 8

; Function Attrs: inlinehint nounwind sspstrong willreturn memory(none) uwtable
define internal zeroext i1 @RB_IMMEDIATE_P(i64 noundef %0) #4 {
  %2 = alloca i64, align 8
  store i64 %0, ptr %2, align 8, !tbaa !31
  %3 = load i64, ptr %2, align 8, !tbaa !31
  %4 = and i64 %3, 7
  %5 = icmp ne i64 %4, 0
  ret i1 %5
}

; Function Attrs: inlinehint nounwind sspstrong willreturn memory(none) uwtable
define internal zeroext i1 @RB_SPECIAL_CONST_P(i64 noundef %0) #4 {
  %2 = alloca i64, align 8
  store i64 %0, ptr %2, align 8, !tbaa !31
  %3 = load i64, ptr %2, align 8, !tbaa !31
  %4 = icmp eq i64 %3, 0
  br i1 %4, label %8, label %5

5:                                                ; preds = %1
  %6 = load i64, ptr %2, align 8, !tbaa !31
  %7 = call zeroext i1 @RB_IMMEDIATE_P(i64 noundef %6) #36
  br label %8

8:                                                ; preds = %5, %1
  %9 = phi i1 [ true, %1 ], [ %7, %5 ]
  ret i1 %9
}

; Function Attrs: inlinehint nounwind sspstrong willreturn memory(none) uwtable
define internal zeroext i1 @RB_TEST(i64 noundef %0) #4 {
  %2 = alloca i64, align 8
  store i64 %0, ptr %2, align 8, !tbaa !31
  %3 = load i64, ptr %2, align 8, !tbaa !31
  %4 = and i64 %3, -5
  %5 = icmp ne i64 %4, 0
  ret i1 %5
}

; Function Attrs: nounwind sspstrong uwtable
define internal ptr @method_definition_addref(ptr noundef %0, i1 noundef zeroext %1) #0 {
  %3 = alloca ptr, align 8
  %4 = alloca i8, align 1
  store ptr %0, ptr %3, align 8, !tbaa !185
  %5 = zext i1 %1 to i8
  store i8 %5, ptr %4, align 1, !tbaa !55
  %6 = load i8, ptr %4, align 1, !tbaa !55, !range !121, !noundef !122
  %7 = trunc i8 %6 to i1
  br i1 %7, label %20, label %8

8:                                                ; preds = %2
  %9 = load ptr, ptr %3, align 8, !tbaa !185
  %10 = load i64, ptr %9, align 8
  %11 = shl i64 %10, 4
  %12 = ashr i64 %11, 36
  %13 = trunc i64 %12 to i32
  %14 = icmp sgt i32 %13, 0
  br i1 %14, label %15, label %20

15:                                               ; preds = %8
  %16 = load ptr, ptr %3, align 8, !tbaa !185
  %17 = load i64, ptr %16, align 8
  %18 = and i64 %17, -65
  %19 = or i64 %18, 64
  store i64 %19, ptr %16, align 8
  br label %20

20:                                               ; preds = %15, %8, %2
  %21 = load ptr, ptr %3, align 8, !tbaa !185
  %22 = load i64, ptr %21, align 8
  %23 = shl i64 %22, 4
  %24 = ashr i64 %23, 36
  %25 = trunc i64 %24 to i32
  %26 = add i32 %25, 1
  %27 = zext i32 %26 to i64
  %28 = load i64, ptr %21, align 8
  %29 = and i64 %27, 268435455
  %30 = shl i64 %29, 32
  %31 = and i64 %28, -1152921500311879681
  %32 = or i64 %31, %30
  store i64 %32, ptr %21, align 8
  %33 = load ptr, ptr %3, align 8, !tbaa !185
  ret ptr %33
}

; Function Attrs: inlinehint nounwind sspstrong uwtable
define internal i64 @rb_obj_written(i64 noundef %0, i64 noundef %1, i64 noundef %2, ptr noundef %3, i32 noundef %4) #2 {
  %6 = alloca i64, align 8
  %7 = alloca i64, align 8
  %8 = alloca i64, align 8
  %9 = alloca ptr, align 8
  %10 = alloca i32, align 4
  store i64 %0, ptr %6, align 8, !tbaa !31
  store i64 %1, ptr %7, align 8, !tbaa !31
  store i64 %2, ptr %8, align 8, !tbaa !31
  store ptr %3, ptr %9, align 8, !tbaa !59
  store i32 %4, ptr %10, align 4, !tbaa !24
  %11 = load i64, ptr %8, align 8, !tbaa !31
  %12 = call zeroext i1 @RB_SPECIAL_CONST_P(i64 noundef %11) #36
  br i1 %12, label %16, label %13

13:                                               ; preds = %5
  %14 = load i64, ptr %6, align 8, !tbaa !31
  %15 = load i64, ptr %8, align 8, !tbaa !31
  call void @rb_gc_writebarrier(i64 noundef %14, i64 noundef %15)
  br label %16

16:                                               ; preds = %13, %5
  %17 = load i64, ptr %6, align 8, !tbaa !31
  ret i64 %17
}

; Function Attrs: nounwind sspstrong uwtable
define hidden ptr @rb_method_definition_create(i32 noundef %0, i64 noundef %1) #0 {
  %3 = alloca i32, align 4
  %4 = alloca i64, align 8
  %5 = alloca ptr, align 8
  store i32 %0, ptr %3, align 4, !tbaa !24
  store i64 %1, ptr %4, align 8, !tbaa !31
  call void @llvm.lifetime.start.p0(i64 8, ptr %5) #21
  %6 = call noalias nonnull ptr @ruby_xcalloc(i64 noundef 1, i64 noundef 48) #39
  store ptr %6, ptr %5, align 8, !tbaa !185
  %7 = load i32, ptr %3, align 4, !tbaa !24
  %8 = load ptr, ptr %5, align 8, !tbaa !185
  %9 = zext i32 %7 to i64
  %10 = load i64, ptr %8, align 8
  %11 = and i64 %9, 15
  %12 = and i64 %10, -16
  %13 = or i64 %12, %11
  store i64 %13, ptr %8, align 8
  %14 = load i64, ptr %4, align 8, !tbaa !31
  %15 = load ptr, ptr %5, align 8, !tbaa !185
  %16 = getelementptr inbounds nuw %struct.rb_method_definition_struct, ptr %15, i32 0, i32 2
  store i64 %14, ptr %16, align 8, !tbaa !183
  %17 = load i64, ptr @rb_method_definition_create.method_serial, align 8, !tbaa !31
  %18 = add i64 %17, 1
  store i64 %18, ptr @rb_method_definition_create.method_serial, align 8, !tbaa !31
  %19 = load ptr, ptr %5, align 8, !tbaa !185
  %20 = getelementptr inbounds nuw %struct.rb_method_definition_struct, ptr %19, i32 0, i32 3
  store i64 %17, ptr %20, align 8, !tbaa !336
  %21 = load ptr, ptr %5, align 8, !tbaa !185
  call void @llvm.lifetime.end.p0(i64 8, ptr %5) #21
  ret ptr %21
}

; Function Attrs: inlinehint nounwind sspstrong uwtable
define internal void @METHOD_ENTRY_FLAGS_COPY(ptr noundef %0, ptr noundef %1) #2 {
  %3 = alloca ptr, align 8
  %4 = alloca ptr, align 8
  store ptr %0, ptr %3, align 8, !tbaa !176
  store ptr %1, ptr %4, align 8, !tbaa !176
  %5 = load ptr, ptr %3, align 8, !tbaa !176
  %6 = getelementptr inbounds nuw %struct.rb_method_entry_struct, ptr %5, i32 0, i32 0
  %7 = load i64, ptr %6, align 8, !tbaa !196
  %8 = and i64 %7, -983041
  %9 = load ptr, ptr %4, align 8, !tbaa !176
  %10 = getelementptr inbounds nuw %struct.rb_method_entry_struct, ptr %9, i32 0, i32 0
  %11 = load i64, ptr %10, align 8, !tbaa !196
  %12 = and i64 %11, 983040
  %13 = or i64 %8, %12
  %14 = load ptr, ptr %3, align 8, !tbaa !176
  %15 = getelementptr inbounds nuw %struct.rb_method_entry_struct, ptr %14, i32 0, i32 0
  store i64 %13, ptr %15, align 8, !tbaa !196
  ret void
}

; Function Attrs: nounwind sspstrong uwtable
define internal ptr @rb_method_entry_alloc(i64 noundef %0, i64 noundef %1, i64 noundef %2, ptr noundef %3, i1 noundef zeroext %4) #0 {
  %6 = alloca i64, align 8
  %7 = alloca i64, align 8
  %8 = alloca i64, align 8
  %9 = alloca ptr, align 8
  %10 = alloca i8, align 1
  %11 = alloca ptr, align 8
  store i64 %0, ptr %6, align 8, !tbaa !31
  store i64 %1, ptr %7, align 8, !tbaa !31
  store i64 %2, ptr %8, align 8, !tbaa !31
  store ptr %3, ptr %9, align 8, !tbaa !185
  %12 = zext i1 %4 to i8
  store i8 %12, ptr %10, align 1, !tbaa !55
  %13 = load ptr, ptr %9, align 8, !tbaa !185
  %14 = icmp ne ptr %13, null
  br i1 %14, label %15, label %20

15:                                               ; preds = %5
  %16 = load ptr, ptr %9, align 8, !tbaa !185
  %17 = load i8, ptr %10, align 1, !tbaa !55, !range !121, !noundef !122
  %18 = trunc i8 %17 to i1
  %19 = call ptr @method_definition_addref(ptr noundef %16, i1 noundef zeroext %18)
  br label %20

20:                                               ; preds = %15, %5
  %21 = load i64, ptr %8, align 8, !tbaa !31
  %22 = call zeroext i1 @RB_TEST(i64 noundef %21) #36
  br i1 %22, label %23, label %24

23:                                               ; preds = %20
  br label %24

24:                                               ; preds = %23, %20
  call void @llvm.lifetime.start.p0(i64 8, ptr %11) #21
  %25 = load i64, ptr %8, align 8, !tbaa !31
  %26 = call i64 @rb_imemo_new(i32 noundef 6, i64 noundef %25, i64 noundef 40)
  %27 = inttoptr i64 %26 to ptr
  store ptr %27, ptr %11, align 8, !tbaa !176
  %28 = load ptr, ptr %9, align 8, !tbaa !185
  %29 = load ptr, ptr %11, align 8, !tbaa !176
  %30 = getelementptr inbounds nuw %struct.rb_method_entry_struct, ptr %29, i32 0, i32 2
  store ptr %28, ptr %30, align 8, !tbaa !185
  %31 = load i64, ptr %6, align 8, !tbaa !31
  %32 = load ptr, ptr %11, align 8, !tbaa !176
  %33 = getelementptr inbounds nuw %struct.rb_method_entry_struct, ptr %32, i32 0, i32 3
  store i64 %31, ptr %33, align 8, !tbaa !319
  %34 = load i64, ptr %7, align 8, !tbaa !31
  %35 = load ptr, ptr %11, align 8, !tbaa !176
  %36 = getelementptr inbounds nuw %struct.rb_method_entry_struct, ptr %35, i32 0, i32 4
  store i64 %34, ptr %36, align 8, !tbaa !181
  %37 = load ptr, ptr %11, align 8, !tbaa !176
  call void @llvm.lifetime.end.p0(i64 8, ptr %11) #21
  ret ptr %37
}

; Function Attrs: inlinehint nounwind sspstrong uwtable
define internal i64 @rb_obj_write(i64 noundef %0, ptr noundef %1, i64 noundef %2, ptr noundef %3, i32 noundef %4) #2 {
  %6 = alloca i64, align 8
  %7 = alloca ptr, align 8
  %8 = alloca i64, align 8
  %9 = alloca ptr, align 8
  %10 = alloca i32, align 4
  store i64 %0, ptr %6, align 8, !tbaa !31
  store ptr %1, ptr %7, align 8, !tbaa !7
  store i64 %2, ptr %8, align 8, !tbaa !31
  store ptr %3, ptr %9, align 8, !tbaa !59
  store i32 %4, ptr %10, align 4, !tbaa !24
  %11 = load i64, ptr %8, align 8, !tbaa !31
  %12 = load ptr, ptr %7, align 8, !tbaa !7
  store i64 %11, ptr %12, align 8, !tbaa !31
  %13 = load i64, ptr %6, align 8, !tbaa !31
  %14 = load i64, ptr %8, align 8, !tbaa !31
  %15 = load ptr, ptr %9, align 8, !tbaa !59
  %16 = load i32, ptr %10, align 4, !tbaa !24
  %17 = call i64 @rb_obj_written(i64 noundef %13, i64 noundef 36, i64 noundef %14, ptr noundef %15, i32 noundef %16)
  %18 = load i64, ptr %6, align 8, !tbaa !31
  ret i64 %18
}

; Function Attrs: nounwind sspstrong uwtable
define hidden ptr @rb_method_entry_complement_defined_class(ptr noundef %0, i64 noundef %1, i64 noundef %2) #0 {
  %4 = alloca ptr, align 8
  %5 = alloca i64, align 8
  %6 = alloca i64, align 8
  %7 = alloca ptr, align 8
  %8 = alloca ptr, align 8
  %9 = alloca ptr, align 8
  %10 = alloca ptr, align 8
  store ptr %0, ptr %4, align 8, !tbaa !176
  store i64 %1, ptr %5, align 8, !tbaa !31
  store i64 %2, ptr %6, align 8, !tbaa !31
  call void @llvm.lifetime.start.p0(i64 8, ptr %7) #21
  %11 = load ptr, ptr %4, align 8, !tbaa !176
  %12 = getelementptr inbounds nuw %struct.rb_method_entry_struct, ptr %11, i32 0, i32 2
  %13 = load ptr, ptr %12, align 8, !tbaa !309
  store ptr %13, ptr %7, align 8, !tbaa !185
  call void @llvm.lifetime.start.p0(i64 8, ptr %8) #21
  call void @llvm.lifetime.start.p0(i64 8, ptr %9) #21
  store ptr null, ptr %9, align 8, !tbaa !176
  %14 = load ptr, ptr %4, align 8, !tbaa !176
  %15 = getelementptr inbounds nuw %struct.rb_method_entry_struct, ptr %14, i32 0, i32 1
  %16 = load i64, ptr %15, align 8, !tbaa !178
  %17 = icmp ne i64 %16, 0
  br i1 %17, label %43, label %18

18:                                               ; preds = %3
  %19 = load ptr, ptr %7, align 8, !tbaa !185
  %20 = load i64, ptr %19, align 8
  %21 = and i64 %20, 15
  %22 = trunc i64 %21 to i32
  %23 = icmp eq i32 %22, 11
  br i1 %23, label %24, label %43

24:                                               ; preds = %18
  %25 = load ptr, ptr %7, align 8, !tbaa !185
  %26 = getelementptr inbounds nuw %struct.rb_method_definition_struct, ptr %25, i32 0, i32 1
  %27 = getelementptr inbounds nuw %struct.rb_method_refined_struct, ptr %26, i32 0, i32 0
  %28 = load ptr, ptr %27, align 8, !tbaa !58
  %29 = icmp ne ptr %28, null
  br i1 %29, label %30, label %43

30:                                               ; preds = %24
  call void @llvm.lifetime.start.p0(i64 8, ptr %10) #21
  %31 = load ptr, ptr %7, align 8, !tbaa !185
  %32 = getelementptr inbounds nuw %struct.rb_method_definition_struct, ptr %31, i32 0, i32 1
  %33 = getelementptr inbounds nuw %struct.rb_method_refined_struct, ptr %32, i32 0, i32 0
  %34 = load ptr, ptr %33, align 8, !tbaa !58
  %35 = call ptr @rb_method_entry_clone(ptr noundef %34)
  store ptr %35, ptr %10, align 8, !tbaa !176
  %36 = load ptr, ptr %10, align 8, !tbaa !176
  %37 = ptrtoint ptr %36 to i64
  %38 = load ptr, ptr %10, align 8, !tbaa !176
  %39 = getelementptr inbounds nuw %struct.rb_method_entry_struct, ptr %38, i32 0, i32 1
  %40 = load i64, ptr %6, align 8, !tbaa !31
  %41 = call i64 @rb_obj_write(i64 noundef %37, ptr noundef %39, i64 noundef %40, ptr noundef @.str.4, i32 noundef 842)
  %42 = load ptr, ptr %10, align 8, !tbaa !176
  store ptr %42, ptr %9, align 8, !tbaa !176
  store ptr null, ptr %7, align 8, !tbaa !185
  call void @llvm.lifetime.end.p0(i64 8, ptr %10) #21
  br label %43

43:                                               ; preds = %30, %24, %18, %3
  %44 = load i64, ptr %5, align 8, !tbaa !31
  %45 = load ptr, ptr %4, align 8, !tbaa !176
  %46 = getelementptr inbounds nuw %struct.rb_method_entry_struct, ptr %45, i32 0, i32 4
  %47 = load i64, ptr %46, align 8, !tbaa !181
  %48 = load i64, ptr %6, align 8, !tbaa !31
  %49 = load ptr, ptr %7, align 8, !tbaa !185
  %50 = call ptr @rb_method_entry_alloc(i64 noundef %44, i64 noundef %47, i64 noundef %48, ptr noundef %49, i1 noundef zeroext true)
  store ptr %50, ptr %8, align 8, !tbaa !176
  %51 = load ptr, ptr %8, align 8, !tbaa !176
  %52 = load ptr, ptr %4, align 8, !tbaa !176
  call void @METHOD_ENTRY_FLAGS_COPY(ptr noundef %51, ptr noundef %52)
  %53 = load ptr, ptr %8, align 8, !tbaa !176
  %54 = getelementptr inbounds nuw %struct.rb_method_entry_struct, ptr %53, i32 0, i32 0
  %55 = load i64, ptr %54, align 8, !tbaa !196
  %56 = or i64 %55, 524288
  store i64 %56, ptr %54, align 8, !tbaa !196
  %57 = load ptr, ptr %7, align 8, !tbaa !185
  %58 = icmp ne ptr %57, null
  br i1 %58, label %65, label %59

59:                                               ; preds = %43
  %60 = load i64, ptr %5, align 8, !tbaa !31
  %61 = call ptr @rb_method_definition_create(i32 noundef 11, i64 noundef %60)
  store ptr %61, ptr %7, align 8, !tbaa !185
  %62 = load ptr, ptr %8, align 8, !tbaa !176
  %63 = load ptr, ptr %7, align 8, !tbaa !185
  %64 = load ptr, ptr %9, align 8, !tbaa !176
  call void @rb_method_definition_set(ptr noundef %62, ptr noundef %63, ptr noundef %64)
  br label %65

65:                                               ; preds = %59, %43
  %66 = load ptr, ptr %8, align 8, !tbaa !176
  call void @llvm.lifetime.end.p0(i64 8, ptr %9) #21
  call void @llvm.lifetime.end.p0(i64 8, ptr %8) #21
  call void @llvm.lifetime.end.p0(i64 8, ptr %7) #21
  ret ptr %66
}