; Function Attrs: nounwind sspstrong uwtable
define hidden noundef ptr @rb_method_entry_complement_defined_class(ptr noundef readonly captures(none) %0, i64 noundef %1, i64 noundef %2) local_unnamed_addr #2 {
  %4 = getelementptr inbounds nuw i8, ptr %0, i64 16
  %5 = load ptr, ptr %4, align 8, !tbaa !350
  %6 = getelementptr inbounds nuw i8, ptr %0, i64 8
  %7 = load i64, ptr %6, align 8, !tbaa !185
  %.not = icmp eq i64 %7, 0
  br i1 %.not, label %8, label %rb_obj_write.exit

8:                                                ; preds = %3
  %9 = load i64, ptr %5, align 8
  %10 = and i64 %9, 15
  %11 = icmp eq i64 %10, 11
  br i1 %11, label %12, label %rb_obj_write.exit.thread32

12:                                               ; preds = %8
  %13 = getelementptr inbounds nuw i8, ptr %5, i64 8
  %14 = load ptr, ptr %13, align 8, !tbaa !26
  %.not23 = icmp eq ptr %14, null
  br i1 %.not23, label %rb_obj_write.exit.thread32, label %15

15:                                               ; preds = %12
  %16 = tail call ptr @rb_method_entry_clone(ptr noundef nonnull %14)
  %17 = getelementptr inbounds nuw i8, ptr %16, i64 8
  store i64 %2, ptr %17, align 8, !tbaa !7
  %18 = icmp eq i64 %2, 0
  %19 = and i64 %2, 7
  %20 = icmp ne i64 %19, 0
  %21 = or i1 %18, %20
  br i1 %21, label %rb_obj_write.exit.thread, label %22

22:                                               ; preds = %15
  %23 = ptrtoint ptr %16 to i64
  tail call void @rb_gc_writebarrier(i64 noundef %23, i64 noundef %2) #21
  br label %rb_obj_write.exit.thread

rb_obj_write.exit.thread:                         ; preds = %15, %22
  %24 = getelementptr inbounds nuw i8, ptr %0, i64 32
  %25 = load i64, ptr %24, align 8, !tbaa !188
  br label %rb_method_entry_alloc.exit

rb_obj_write.exit.thread32:                       ; preds = %12, %8
  %26 = getelementptr inbounds nuw i8, ptr %0, i64 32
  %27 = load i64, ptr %26, align 8, !tbaa !188
  br label %30

rb_obj_write.exit:                                ; preds = %3
  %28 = getelementptr inbounds nuw i8, ptr %0, i64 32
  %29 = load i64, ptr %28, align 8, !tbaa !188
  %.not.i = icmp eq ptr %5, null
  br i1 %.not.i, label %rb_method_entry_alloc.exit, label %rb_obj_write.exit._crit_edge

rb_obj_write.exit._crit_edge:                     ; preds = %rb_obj_write.exit
  %.pre.i.i.pre = load i64, ptr %5, align 8
  br label %30

30:                                               ; preds = %rb_obj_write.exit._crit_edge, %rb_obj_write.exit.thread32
  %.pre.i.i = phi i64 [ %9, %rb_obj_write.exit.thread32 ], [ %.pre.i.i.pre, %rb_obj_write.exit._crit_edge ]
  %31 = phi i64 [ %27, %rb_obj_write.exit.thread32 ], [ %29, %rb_obj_write.exit._crit_edge ]
  %32 = add i64 %.pre.i.i, 4294967296
  %33 = and i64 %32, 1152921500311879680
  %34 = and i64 %.pre.i.i, -1152921500311879681
  %35 = or disjoint i64 %33, %34
  store i64 %35, ptr %5, align 8
  br label %rb_method_entry_alloc.exit

rb_method_entry_alloc.exit:                       ; preds = %rb_obj_write.exit.thread, %rb_obj_write.exit, %30
  %.not.i30 = phi i1 [ true, %rb_obj_write.exit.thread ], [ true, %rb_obj_write.exit ], [ false, %30 ]
  %36 = phi i64 [ %25, %rb_obj_write.exit.thread ], [ %29, %rb_obj_write.exit ], [ %31, %30 ]
  %.029 = phi ptr [ null, %rb_obj_write.exit.thread ], [ null, %rb_obj_write.exit ], [ %5, %30 ]
  %.02128 = phi ptr [ %16, %rb_obj_write.exit.thread ], [ null, %rb_obj_write.exit ], [ null, %30 ]
  %37 = tail call i64 @rb_imemo_new(i32 noundef 6, i64 noundef %2, i64 noundef 40) #21
  %38 = inttoptr i64 %37 to ptr
  %39 = getelementptr inbounds nuw i8, ptr %38, i64 16
  store ptr %.029, ptr %39, align 8, !tbaa !351
  %40 = getelementptr inbounds nuw i8, ptr %38, i64 24
  store i64 %1, ptr %40, align 8, !tbaa !352
  %41 = getelementptr inbounds nuw i8, ptr %38, i64 32
  store i64 %36, ptr %41, align 8, !tbaa !188
  %.val = load i64, ptr %0, align 8, !tbaa !200
  %42 = load i64, ptr %38, align 8, !tbaa !200
  %43 = and i64 %42, -983041
  %44 = and i64 %.val, 458752
  %45 = or disjoint i64 %44, %43
  %46 = or disjoint i64 %45, 524288
  store i64 %46, ptr %38, align 8, !tbaa !200
  br i1 %.not.i30, label %47, label %56

47:                                               ; preds = %rb_method_entry_alloc.exit
  %48 = tail call noalias nonnull dereferenceable(48) ptr @ruby_xcalloc(i64 noundef 1, i64 noundef 48) #57
  %49 = load i64, ptr %48, align 8
  %50 = and i64 %49, -16
  %51 = or disjoint i64 %50, 11
  store i64 %51, ptr %48, align 8
  %52 = getelementptr inbounds nuw i8, ptr %48, i64 32
  store i64 %1, ptr %52, align 8, !tbaa !190
  %53 = load i64, ptr @rb_method_definition_create.method_serial, align 8, !tbaa !7
  %54 = add i64 %53, 1
  store i64 %54, ptr @rb_method_definition_create.method_serial, align 8, !tbaa !7
  %55 = getelementptr inbounds nuw i8, ptr %48, i64 40
  store i64 %53, ptr %55, align 8, !tbaa !192
  tail call void @rb_method_definition_set(ptr noundef nonnull %38, ptr noundef nonnull %48, ptr noundef %.02128)
  br label %56

56:                                               ; preds = %47, %rb_method_entry_alloc.exit
  ret ptr %38
}